; ModuleID = '3/1864.c'
source_filename = "3/1864.c"
target datalayout = "e-m:e-p270:32:32-p271:32:32-p272:64:64-i64:64-f80:128-n8:16:32:64-S128"
target triple = "x86_64-pc-linux-gnu"

@.str = private unnamed_addr constant [6 x i8] c"%d %d\00", align 1
@.str.1 = private unnamed_addr constant [3 x i8] c"%d\00", align 1
@.str.2 = private unnamed_addr constant [4 x i8] c"%s\0A\00", align 1
@.str.3 = private unnamed_addr constant [4 x i8] c"yes\00", align 1
@.str.4 = private unnamed_addr constant [3 x i8] c"no\00", align 1

; Function Attrs: noinline nounwind uwtable
define dso_local void @main() #0 {
  %1 = alloca i32, align 4
  %2 = alloca i32, align 4
  %3 = alloca i32, align 4
  %4 = alloca i32, align 4
  %5 = alloca [1005 x i32], align 16
  %6 = alloca i32, align 4
  store i32 0, i32* %6, align 4
  %7 = call i32 (i8*, ...) @__isoc99_scanf(i8* getelementptr inbounds ([6 x i8], [6 x i8]* @.str, i64 0, i64 0), i32* %1, i32* %2)
  store i32 0, i32* %3, align 4
  br label %8

8:                                                ; preds = %18, %0
  %9 = load i32, i32* %3, align 4
  %10 = load i32, i32* %1, align 4
  %11 = icmp slt i32 %9, %10
  br i1 %11, label %12, label %21

12:                                               ; preds = %8
  %13 = getelementptr inbounds [1005 x i32], [1005 x i32]* %5, i64 0, i64 0
  %14 = load i32, i32* %3, align 4
  %15 = sext i32 %14 to i64
  %16 = getelementptr inbounds i32, i32* %13, i64 %15
  %17 = call i32 (i8*, ...) @__isoc99_scanf(i8* getelementptr inbounds ([3 x i8], [3 x i8]* @.str.1, i64 0, i64 0), i32* %16)
  br label %18

18:                                               ; preds = %12
  %19 = load i32, i32* %3, align 4
  %20 = add nsw i32 %19, 1
  store i32 %20, i32* %3, align 4
  br label %8

21:                                               ; preds = %8
  store i32 0, i32* %3, align 4
  br label %22

22:                                               ; preds = %52, %21
  %23 = load i32, i32* %3, align 4
  %24 = load i32, i32* %1, align 4
  %25 = sub nsw i32 %24, 1
  %26 = icmp slt i32 %23, %25
  br i1 %26, label %27, label %55

27:                                               ; preds = %22
  %28 = load i32, i32* %3, align 4
  %29 = add nsw i32 %28, 1
  store i32 %29, i32* %4, align 4
  br label %30

30:                                               ; preds = %48, %27
  %31 = load i32, i32* %4, align 4
  %32 = load i32, i32* %1, align 4
  %33 = icmp slt i32 %31, %32
  br i1 %33, label %34, label %51

34:                                               ; preds = %30
  %35 = load i32, i32* %3, align 4
  %36 = sext i32 %35 to i64
  %37 = getelementptr inbounds [1005 x i32], [1005 x i32]* %5, i64 0, i64 %36
  %38 = load i32, i32* %37, align 4
  %39 = load i32, i32* %4, align 4
  %40 = sext i32 %39 to i64
  %41 = getelementptr inbounds [1005 x i32], [1005 x i32]* %5, i64 0, i64 %40
  %42 = load i32, i32* %41, align 4
  %43 = add nsw i32 %38, %42
  %44 = load i32, i32* %2, align 4
  %45 = icmp eq i32 %43, %44
  br i1 %45, label %46, label %47

46:                                               ; preds = %34
  store i32 1, i32* %6, align 4
  br label %51

47:                                               ; preds = %34
  br label %48

48:                                               ; preds = %47
  %49 = load i32, i32* %4, align 4
  %50 = add nsw i32 %49, 1
  store i32 %50, i32* %4, align 4
  br label %30

51:                                               ; preds = %46, %30
  br label %52

52:                                               ; preds = %51
  %53 = load i32, i32* %3, align 4
  %54 = add nsw i32 %53, 1
  store i32 %54, i32* %3, align 4
  br label %22

55:                                               ; preds = %22
  %56 = load i32, i32* %6, align 4
  %57 = icmp ne i32 %56, 0
  %58 = zext i1 %57 to i64
  %59 = select i1 %57, i8* getelementptr inbounds ([4 x i8], [4 x i8]* @.str.3, i64 0, i64 0), i8* getelementptr inbounds ([3 x i8], [3 x i8]* @.str.4, i64 0, i64 0)
  %60 = call i32 (i8*, ...) @printf(i8* getelementptr inbounds ([4 x i8], [4 x i8]* @.str.2, i64 0, i64 0), i8* %59)
  ret void
}

declare dso_local i32 @__isoc99_scanf(i8*, ...) #1

declare dso_local i32 @printf(i8*, ...) #1


!llvm.module.flags = !{!0}
!llvm.ident = !{!1}

!0 = !{i32 1, !"wchar_size", i32 4}
!1 = !{!"clang version 10.0.0-4ubuntu1 "}
